; Function Attrs: nounwind uwtable
define dso_local void @aofDelTempIncrAofFile() local_unnamed_addr #0 {
  %1 = tail call ptr @sdsempty() #20
  %2 = load ptr, ptr getelementptr inbounds nuw (i8, ptr @server, i64 6528), align 8, !tbaa !33
  %3 = tail call ptr (ptr, ptr, ...) @sdscatprintf(ptr noundef %1, ptr noundef nonnull @.str.13, ptr noundef nonnull @.str.14, ptr noundef %2, ptr noundef nonnull @.str.40) #20
  %4 = load ptr, ptr getelementptr inbounds nuw (i8, ptr @server, i64 6536), align 8, !tbaa !64
  %5 = tail call ptr @makePath(ptr noundef %4, ptr noundef %3) #20
  %6 = load i32, ptr getelementptr inbounds nuw (i8, ptr @server, i64 6288), align 8, !tbaa !65
  %7 = icmp sgt i32 %6, 2
  br i1 %7, label %9, label %8

8:                                                ; preds = %0
  tail call void (i32, ptr, ...) @_serverLog(i32 noundef 2, ptr noundef nonnull @.str.54, ptr noundef %3) #20
  br label %9

9:                                                ; preds = %0, %8
  %10 = tail call i32 @bg_unlink(ptr noundef %5) #20
  tail call void @sdsfree(ptr noundef %5) #20
  tail call void @sdsfree(ptr noundef %3) #20
  ret void
}